target datalayout = "e-m:e-p270:32:32-p271:32:32-p272:64:64-i64:64-i128:128-f80:128-n8:16:32:64-S128"
target triple = "x86_64-pc-linux-gnu"

%"class.llvm::ModuleSlotTracker" = type { ptr, %"class.std::unique_ptr", i8, i8, ptr, ptr, ptr, %"class.std::function", %"class.std::function.2" }
%"class.std::unique_ptr" = type { %"struct.std::__uniq_ptr_data" }
%"struct.std::__uniq_ptr_data" = type { %"class.std::__uniq_ptr_impl" }
%"class.std::__uniq_ptr_impl" = type { %"class.std::tuple" }
%"class.std::tuple" = type { %"struct.std::_Tuple_impl" }
%"struct.std::_Tuple_impl" = type { %"struct.std::_Head_base.1" }
%"struct.std::_Head_base.1" = type { ptr }
%"class.std::function" = type { %"class.std::_Function_base", ptr }
%"class.std::_Function_base" = type { %"union.std::_Any_data", ptr }
%"union.std::_Any_data" = type { %"union.std::_Nocopy_types" }
%"union.std::_Nocopy_types" = type { { i64, i64 } }
%"class.std::function.2" = type { %"class.std::_Function_base", ptr }
%"class.llvm::Metadata" = type { i8, i8, i16, i32 }

@_ZN4llvm17ModuleSlotTrackerC1EPKNS_6ModuleEb = unnamed_addr alias void (ptr, ptr, i1), ptr @_ZN4llvm17ModuleSlotTrackerC2EPKNS_6ModuleEb
@_ZN4llvm17ModuleSlotTrackerD1Ev = unnamed_addr alias void (ptr), ptr @_ZN4llvm17ModuleSlotTrackerD2Ev

; Function Attrs: mustprogress nounwind uwtable
define linkonce_odr hidden noundef i32 @_ZNK4llvm8Metadata13getMetadataIDEv(ptr noundef nonnull align 4 dereferenceable(8) %0) #0 comdat align 2 {
  %2 = alloca ptr, align 8
  store ptr %0, ptr %2, align 8
  %3 = load ptr, ptr %2, align 8
  %4 = getelementptr inbounds nuw %"class.llvm::Metadata", ptr %3, i32 0, i32 0
  %5 = load i8, ptr %4, align 4
  %6 = zext i8 %5 to i32
  ret i32 %6
}

; Function Attrs: mustprogress nounwind uwtable
define linkonce_odr hidden noundef zeroext i1 @_ZN4llvm6MDNode7classofEPKNS_8MetadataE(ptr noundef %0) #0 comdat align 2 {
  %2 = alloca i1, align 1
  %3 = alloca ptr, align 8
  store ptr %0, ptr %3, align 8
  %4 = load ptr, ptr %3, align 8
  %5 = call noundef i32 @_ZNK4llvm8Metadata13getMetadataIDEv(ptr noundef nonnull align 4 dereferenceable(8) %4)
  switch i32 %5, label %6 [
    i32 5, label %7
    i32 6, label %8
    i32 7, label %9
    i32 8, label %10
    i32 9, label %11
    i32 10, label %12
    i32 11, label %13
    i32 12, label %14
    i32 13, label %15
    i32 14, label %16
    i32 15, label %17
    i32 16, label %18
    i32 17, label %19
    i32 18, label %20
    i32 19, label %21
    i32 20, label %22
    i32 21, label %23
    i32 22, label %24
    i32 23, label %25
    i32 24, label %26
    i32 25, label %27
    i32 26, label %28
    i32 27, label %29
    i32 28, label %30
    i32 29, label %31
    i32 30, label %32
    i32 31, label %33
    i32 32, label %34
    i32 33, label %35
    i32 34, label %36
    i32 35, label %37
  ]

6:                                                ; preds = %1
  store i1 false, ptr %2, align 1
  br label %38

7:                                                ; preds = %1
  store i1 true, ptr %2, align 1
  br label %38

8:                                                ; preds = %1
  store i1 true, ptr %2, align 1
  br label %38

9:                                                ; preds = %1
  store i1 true, ptr %2, align 1
  br label %38

10:                                               ; preds = %1
  store i1 true, ptr %2, align 1
  br label %38

11:                                               ; preds = %1
  store i1 true, ptr %2, align 1
  br label %38

12:                                               ; preds = %1
  store i1 true, ptr %2, align 1
  br label %38

13:                                               ; preds = %1
  store i1 true, ptr %2, align 1
  br label %38

14:                                               ; preds = %1
  store i1 true, ptr %2, align 1
  br label %38

15:                                               ; preds = %1
  store i1 true, ptr %2, align 1
  br label %38

16:                                               ; preds = %1
  store i1 true, ptr %2, align 1
  br label %38

17:                                               ; preds = %1
  store i1 true, ptr %2, align 1
  br label %38

18:                                               ; preds = %1
  store i1 true, ptr %2, align 1
  br label %38

19:                                               ; preds = %1
  store i1 true, ptr %2, align 1
  br label %38

20:                                               ; preds = %1
  store i1 true, ptr %2, align 1
  br label %38

21:                                               ; preds = %1
  store i1 true, ptr %2, align 1
  br label %38

22:                                               ; preds = %1
  store i1 true, ptr %2, align 1
  br label %38

23:                                               ; preds = %1
  store i1 true, ptr %2, align 1
  br label %38

24:                                               ; preds = %1
  store i1 true, ptr %2, align 1
  br label %38

25:                                               ; preds = %1
  store i1 true, ptr %2, align 1
  br label %38

26:                                               ; preds = %1
  store i1 true, ptr %2, align 1
  br label %38

27:                                               ; preds = %1
  store i1 true, ptr %2, align 1
  br label %38

28:                                               ; preds = %1
  store i1 true, ptr %2, align 1
  br label %38

29:                                               ; preds = %1
  store i1 true, ptr %2, align 1
  br label %38

30:                                               ; preds = %1
  store i1 true, ptr %2, align 1
  br label %38

31:                                               ; preds = %1
  store i1 true, ptr %2, align 1
  br label %38

32:                                               ; preds = %1
  store i1 true, ptr %2, align 1
  br label %38

33:                                               ; preds = %1
  store i1 true, ptr %2, align 1
  br label %38

34:                                               ; preds = %1
  store i1 true, ptr %2, align 1
  br label %38

35:                                               ; preds = %1
  store i1 true, ptr %2, align 1
  br label %38

36:                                               ; preds = %1
  store i1 true, ptr %2, align 1
  br label %38

37:                                               ; preds = %1
  store i1 true, ptr %2, align 1
  br label %38

38:                                               ; preds = %37, %36, %35, %34, %33, %32, %31, %30, %29, %28, %27, %26, %25, %24, %23, %22, %21, %20, %19, %18, %17, %16, %15, %14, %13, %12, %11, %10, %9, %8, %7, %6
  %39 = load i1, ptr %2, align 1
  ret i1 %39
}

; Function Attrs: mustprogress nounwind uwtable
define linkonce_odr hidden noundef zeroext i1 @_ZN4llvm8isa_implINS_6MDNodeENS_8MetadataEvE4doitERKS2_(ptr noundef nonnull align 4 dereferenceable(8) %0) #0 comdat align 2 {
  %2 = alloca ptr, align 8
  store ptr %0, ptr %2, align 8
  %3 = load ptr, ptr %2, align 8
  %4 = call noundef zeroext i1 @_ZN4llvm6MDNode7classofEPKNS_8MetadataE(ptr noundef %3)
  ret i1 %4
}

; Function Attrs: mustprogress nounwind uwtable
define linkonce_odr hidden noundef zeroext i1 @_ZN4llvm11isa_impl_clINS_6MDNodeEPKNS_8MetadataEE4doitES4_(ptr noundef %0) #0 comdat align 2 {
  %2 = alloca ptr, align 8
  store ptr %0, ptr %2, align 8
  %3 = load ptr, ptr %2, align 8
  %4 = call noundef zeroext i1 @_ZN4llvm8isa_implINS_6MDNodeENS_8MetadataEvE4doitERKS2_(ptr noundef nonnull align 4 dereferenceable(8) %3)
  ret i1 %4
}

; Function Attrs: mustprogress nounwind uwtable
define linkonce_odr hidden noundef zeroext i1 @_ZN4llvm13isa_impl_wrapINS_6MDNodeEPKNS_8MetadataES4_E4doitERKS4_(ptr noundef nonnull align 8 dereferenceable(8) %0) #0 comdat align 2 {
  %2 = alloca ptr, align 8
  store ptr %0, ptr %2, align 8
  %3 = load ptr, ptr %2, align 8
  %4 = load ptr, ptr %3, align 8
  %5 = call noundef zeroext i1 @_ZN4llvm11isa_impl_clINS_6MDNodeEPKNS_8MetadataEE4doitES4_(ptr noundef %4)
  ret i1 %5
}

; Function Attrs: mustprogress nounwind uwtable
define linkonce_odr hidden noundef zeroext i1 @_ZN4llvm13isa_impl_wrapINS_6MDNodeEKPKNS_8MetadataES4_E4doitERS5_(ptr noundef nonnull align 8 dereferenceable(8) %0) #0 comdat align 2 {
  %2 = alloca ptr, align 8
  %3 = alloca ptr, align 8
  store ptr %0, ptr %2, align 8
  %4 = load ptr, ptr %2, align 8
  %5 = call noundef ptr @_ZN4llvm13simplify_typeIKPKNS_8MetadataEE18getSimplifiedValueERS4_(ptr noundef nonnull align 8 dereferenceable(8) %4)
  store ptr %5, ptr %3, align 8
  %6 = call noundef zeroext i1 @_ZN4llvm13isa_impl_wrapINS_6MDNodeEPKNS_8MetadataES4_E4doitERKS4_(ptr noundef nonnull align 8 dereferenceable(8) %3)
  ret i1 %6
}

; Function Attrs: mustprogress nounwind uwtable
define linkonce_odr hidden noundef nonnull align 8 dereferenceable(8) ptr @_ZN4llvm13simplify_typeIPKNS_8MetadataEE18getSimplifiedValueERS3_(ptr noundef nonnull align 8 dereferenceable(8) %0) #0 comdat align 2 {
  %2 = alloca ptr, align 8
  store ptr %0, ptr %2, align 8
  %3 = load ptr, ptr %2, align 8
  ret ptr %3
}

; Function Attrs: mustprogress nounwind uwtable
define linkonce_odr hidden noundef zeroext i1 @_ZN4llvm14CastIsPossibleINS_6MDNodeEPKNS_8MetadataEvE10isPossibleERKS4_(ptr noundef nonnull align 8 dereferenceable(8) %0) #0 comdat align 2 {
  %2 = alloca ptr, align 8
  store ptr %0, ptr %2, align 8
  %3 = load ptr, ptr %2, align 8
  %4 = call noundef zeroext i1 @_ZN4llvm13isa_impl_wrapINS_6MDNodeEKPKNS_8MetadataES4_E4doitERS5_(ptr noundef nonnull align 8 dereferenceable(8) %3)
  ret i1 %4
}

; Function Attrs: mustprogress nounwind uwtable
define linkonce_odr hidden noundef ptr @_ZN4llvm13simplify_typeIKPKNS_8MetadataEE18getSimplifiedValueERS4_(ptr noundef nonnull align 8 dereferenceable(8) %0) #0 comdat align 2 {
  %2 = alloca ptr, align 8
  store ptr %0, ptr %2, align 8
  %3 = load ptr, ptr %2, align 8
  %4 = call noundef nonnull align 8 dereferenceable(8) ptr @_ZN4llvm13simplify_typeIPKNS_8MetadataEE18getSimplifiedValueERS3_(ptr noundef nonnull align 8 dereferenceable(8) %3)
  %5 = load ptr, ptr %4, align 8
  ret ptr %5
}

; Function Attrs: mustprogress nounwind uwtable
define linkonce_odr hidden noundef zeroext i1 @_ZN4llvm8CastInfoINS_6MDNodeEKPKNS_8MetadataEvE10isPossibleERS5_(ptr noundef nonnull align 8 dereferenceable(8) %0) #0 comdat align 2 {
  %2 = alloca ptr, align 8
  %3 = alloca ptr, align 8
  store ptr %0, ptr %2, align 8
  %4 = load ptr, ptr %2, align 8
  %5 = call noundef ptr @_ZN4llvm13simplify_typeIKPKNS_8MetadataEE18getSimplifiedValueERS4_(ptr noundef nonnull align 8 dereferenceable(8) %4)
  store ptr %5, ptr %3, align 8
  %6 = call noundef zeroext i1 @_ZN4llvm14CastIsPossibleINS_6MDNodeEPKNS_8MetadataEvE10isPossibleERKS4_(ptr noundef nonnull align 8 dereferenceable(8) %3)
  ret i1 %6
}

; Function Attrs: mustprogress nounwind uwtable
define linkonce_odr hidden noundef zeroext i1 @_ZN4llvm3isaINS_6MDNodeEPKNS_8MetadataEEEbRKT0_(ptr noundef nonnull align 8 dereferenceable(8) %0) #0 comdat {
  %2 = alloca ptr, align 8
  store ptr %0, ptr %2, align 8
  %3 = load ptr, ptr %2, align 8
  %4 = call noundef zeroext i1 @_ZN4llvm8CastInfoINS_6MDNodeEKPKNS_8MetadataEvE10isPossibleERS5_(ptr noundef nonnull align 8 dereferenceable(8) %3)
  ret i1 %4
}

; Function Attrs: mustprogress nounwind uwtable
define dso_local void @_ZNK4llvm8Metadata5printERNS_11raw_ostreamEPKNS_6ModuleEb(ptr noundef nonnull align 4 dereferenceable(8) %0, ptr noundef nonnull align 8 dereferenceable(48) %1, ptr noundef %2, i1 noundef zeroext %3) #0 align 2 {
  %5 = alloca ptr, align 8
  %6 = alloca ptr, align 8
  %7 = alloca ptr, align 8
  %8 = alloca i8, align 1
  %9 = alloca %"class.llvm::ModuleSlotTracker", align 8
  %10 = alloca ptr, align 8
  store ptr %0, ptr %5, align 8
  store ptr %1, ptr %6, align 8
  store ptr %2, ptr %7, align 8
  %11 = zext i1 %3 to i8
  store i8 %11, ptr %8, align 1
  %12 = load ptr, ptr %5, align 8
  %13 = load ptr, ptr %7, align 8
  store ptr %12, ptr %10, align 8
  %14 = call noundef zeroext i1 @_ZN4llvm3isaINS_6MDNodeEPKNS_8MetadataEEEbRKT0_(ptr noundef nonnull align 8 dereferenceable(8) %10)
  call void @_ZN4llvm17ModuleSlotTrackerC1EPKNS_6ModuleEb(ptr noundef nonnull align 8 dereferenceable(112) %9, ptr noundef %13, i1 noundef zeroext %14)
  %15 = load ptr, ptr %6, align 8
  %16 = load ptr, ptr %7, align 8
  call void @_ZL17printMetadataImplRN4llvm11raw_ostreamERKNS_8MetadataERNS_17ModuleSlotTrackerEPKNS_6ModuleEbb(ptr noundef nonnull align 8 dereferenceable(48) %15, ptr noundef nonnull align 4 dereferenceable(8) %12, ptr noundef nonnull align 8 dereferenceable(112) %9, ptr noundef %16, i1 noundef zeroext false, i1 noundef zeroext false)
  call void @_ZN4llvm17ModuleSlotTrackerD1Ev(ptr noundef nonnull align 8 dereferenceable(112) %9) #11
  ret void
}