; Function Attrs: mustprogress nounwind uwtable
define dso_local void @_ZNK4llvm8Metadata5printERNS_11raw_ostreamEPKNS_6ModuleEb(ptr noundef nonnull align 4 dereferenceable(8) %0, ptr noundef nonnull align 8 dereferenceable(48) %1, ptr noundef %2, i1 noundef zeroext %3) local_unnamed_addr #1 align 2 {
_ZN4llvm3isaINS_6MDNodeEPKNS_8MetadataEEEbRKT0_.exit:
  %4 = alloca %"class.llvm::ModuleSlotTracker", align 8
  %5 = load i8, ptr %0, align 4
  %6 = icmp ult i8 %5, 36
  %switch.cast = zext nneg i8 %5 to i36
  %switch.downshift = lshr i36 -32, %switch.cast
  %switch.masked = trunc i36 %switch.downshift to i1
  %.0.i.i.i.i.i.i.i.i = select i1 %6, i1 %switch.masked, i1 false
  call void @_ZN4llvm17ModuleSlotTrackerC1EPKNS_6ModuleEb(ptr noundef nonnull align 8 dereferenceable(112) %4, ptr noundef %2, i1 noundef zeroext %.0.i.i.i.i.i.i.i.i) #25
  call fastcc void @_ZL17printMetadataImplRN4llvm11raw_ostreamERKNS_8MetadataERNS_17ModuleSlotTrackerEPKNS_6ModuleEbb(ptr noundef nonnull align 8 dereferenceable(48) %1, ptr noundef nonnull align 4 dereferenceable(8) %0, ptr noundef nonnull align 8 dereferenceable(112) %4, ptr noundef %2, i1 noundef zeroext false, i1 noundef zeroext false)
  call void @_ZN4llvm17ModuleSlotTrackerD1Ev(ptr noundef nonnull align 8 dereferenceable(112) %4) #25
  ret void
}